; ModuleID = '53/848.c'
source_filename = "53/848.c"
target datalayout = "e-m:e-p270:32:32-p271:32:32-p272:64:64-i64:64-f80:128-n8:16:32:64-S128"
target triple = "x86_64-pc-linux-gnu"

@.str = private unnamed_addr constant [3 x i8] c"%d\00", align 1
@.str.1 = private unnamed_addr constant [3 x i8] c"%f\00", align 1
@.str.2 = private unnamed_addr constant [5 x i8] c"%.0f\00", align 1
@.str.3 = private unnamed_addr constant [6 x i8] c",%.0f\00", align 1

; Function Attrs: noinline nounwind uwtable
define dso_local void @main() #0 {
  %1 = alloca [300 x float], align 16
  %2 = alloca i32, align 4
  %3 = alloca i32, align 4
  %4 = alloca i32, align 4
  %5 = alloca i32, align 4
  store i32 0, i32* %5, align 4
  %6 = call i32 (i8*, ...) @__isoc99_scanf(i8* getelementptr inbounds ([3 x i8], [3 x i8]* @.str, i64 0, i64 0), i32* %2)
  store i32 0, i32* %3, align 4
  br label %7

7:                                                ; preds = %16, %0
  %8 = load i32, i32* %3, align 4
  %9 = load i32, i32* %2, align 4
  %10 = icmp slt i32 %8, %9
  br i1 %10, label %11, label %19

11:                                               ; preds = %7
  %12 = load i32, i32* %3, align 4
  %13 = sext i32 %12 to i64
  %14 = getelementptr inbounds [300 x float], [300 x float]* %1, i64 0, i64 %13
  %15 = call i32 (i8*, ...) @__isoc99_scanf(i8* getelementptr inbounds ([3 x i8], [3 x i8]* @.str.1, i64 0, i64 0), float* %14)
  br label %16

16:                                               ; preds = %11
  %17 = load i32, i32* %3, align 4
  %18 = add nsw i32 %17, 1
  store i32 %18, i32* %3, align 4
  br label %7

19:                                               ; preds = %7
  store i32 0, i32* %3, align 4
  br label %20

20:                                               ; preds = %52, %19
  %21 = load i32, i32* %3, align 4
  %22 = load i32, i32* %2, align 4
  %23 = icmp slt i32 %21, %22
  br i1 %23, label %24, label %55

24:                                               ; preds = %20
  %25 = load i32, i32* %3, align 4
  %26 = add nsw i32 %25, 1
  store i32 %26, i32* %4, align 4
  br label %27

27:                                               ; preds = %48, %24
  %28 = load i32, i32* %4, align 4
  %29 = load i32, i32* %2, align 4
  %30 = icmp slt i32 %28, %29
  br i1 %30, label %31, label %51

31:                                               ; preds = %27
  %32 = load i32, i32* %4, align 4
  %33 = sext i32 %32 to i64
  %34 = getelementptr inbounds [300 x float], [300 x float]* %1, i64 0, i64 %33
  %35 = load float, float* %34, align 4
  %36 = load i32, i32* %3, align 4
  %37 = sext i32 %36 to i64
  %38 = getelementptr inbounds [300 x float], [300 x float]* %1, i64 0, i64 %37
  %39 = load float, float* %38, align 4
  %40 = fcmp oeq float %35, %39
  br i1 %40, label %41, label %45

41:                                               ; preds = %31
  %42 = load i32, i32* %4, align 4
  %43 = sext i32 %42 to i64
  %44 = getelementptr inbounds [300 x float], [300 x float]* %1, i64 0, i64 %43
  store float 0x3FF19999A0000000, float* %44, align 4
  br label %45

45:                                               ; preds = %41, %31
  %46 = load i32, i32* %5, align 4
  %47 = add nsw i32 %46, 1
  store i32 %47, i32* %5, align 4
  br label %48

48:                                               ; preds = %45
  %49 = load i32, i32* %4, align 4
  %50 = add nsw i32 %49, 1
  store i32 %50, i32* %4, align 4
  br label %27

51:                                               ; preds = %27
  br label %52

52:                                               ; preds = %51
  %53 = load i32, i32* %3, align 4
  %54 = add nsw i32 %53, 1
  store i32 %54, i32* %3, align 4
  br label %20

55:                                               ; preds = %20
  %56 = load i32, i32* %5, align 4
  %57 = load i32, i32* %2, align 4
  %58 = sub nsw i32 %57, 1
  %59 = icmp eq i32 %56, %58
  br i1 %59, label %60, label %65

60:                                               ; preds = %55
  %61 = getelementptr inbounds [300 x float], [300 x float]* %1, i64 0, i64 0
  %62 = load float, float* %61, align 16
  %63 = fpext float %62 to double
  %64 = call i32 (i8*, ...) @printf(i8* getelementptr inbounds ([5 x i8], [5 x i8]* @.str.2, i64 0, i64 0), double %63)
  br label %95

65:                                               ; preds = %55
  %66 = getelementptr inbounds [300 x float], [300 x float]* %1, i64 0, i64 0
  %67 = load float, float* %66, align 16
  %68 = fpext float %67 to double
  %69 = call i32 (i8*, ...) @printf(i8* getelementptr inbounds ([5 x i8], [5 x i8]* @.str.2, i64 0, i64 0), double %68)
  store i32 1, i32* %3, align 4
  br label %70

70:                                               ; preds = %91, %65
  %71 = load i32, i32* %3, align 4
  %72 = load i32, i32* %2, align 4
  %73 = icmp slt i32 %71, %72
  br i1 %73, label %74, label %94

74:                                               ; preds = %70
  %75 = load i32, i32* %3, align 4
  %76 = sext i32 %75 to i64
  %77 = getelementptr inbounds [300 x float], [300 x float]* %1, i64 0, i64 %76
  %78 = load float, float* %77, align 4
  %79 = fpext float %78 to double
  %80 = fsub double %79, 1.100000e+00
  %81 = call double @llvm.fabs.f64(double %80)
  %82 = fcmp ogt double %81, 0x3FB70A3D70A3D70A
  br i1 %82, label %83, label %90

83:                                               ; preds = %74
  %84 = load i32, i32* %3, align 4
  %85 = sext i32 %84 to i64
  %86 = getelementptr inbounds [300 x float], [300 x float]* %1, i64 0, i64 %85
  %87 = load float, float* %86, align 4
  %88 = fpext float %87 to double
  %89 = call i32 (i8*, ...) @printf(i8* getelementptr inbounds ([6 x i8], [6 x i8]* @.str.3, i64 0, i64 0), double %88)
  br label %90

90:                                               ; preds = %83, %74
  br label %91

91:                                               ; preds = %90
  %92 = load i32, i32* %3, align 4
  %93 = add nsw i32 %92, 1
  store i32 %93, i32* %3, align 4
  br label %70

94:                                               ; preds = %70
  br label %95

95:                                               ; preds = %94, %60
  ret void
}

declare dso_local i32 @__isoc99_scanf(i8*, ...) #1

declare dso_local i32 @printf(i8*, ...) #1

; Function Attrs: nounwind readnone speculatable willreturn
declare double @llvm.fabs.f64(double) #2


!llvm.module.flags = !{!0}
!llvm.ident = !{!1}

!0 = !{i32 1, !"wchar_size", i32 4}
!1 = !{!"clang version 10.0.0-4ubuntu1 "}
